; Function Attrs: mustprogress uwtable
define internal fastcc noundef i32 @_ZL9swap_decli(i32 noundef %k) unnamed_addr #3 {
entry:
  %switch.tableidx = add i32 %k, -2
  %0 = icmp ult i32 %switch.tableidx, 4
  br i1 %0, label %switch.lookup, label %sw.default

sw.default:                                       ; preds = %entry
  tail call void @_Z26notify_assertion_violationPKciS0_(ptr noundef nonnull @.str, i32 noundef 54, ptr noundef nonnull @.str.1)
  tail call void @exit(i32 noundef 114) #14
  unreachable

switch.lookup:                                    ; preds = %entry
  %1 = zext nneg i32 %switch.tableidx to i64
  %switch.gep = getelementptr inbounds [4 x i32], ptr @switch.table._ZL9swap_decli, i64 0, i64 %1
  %switch.load = load i32, ptr %switch.gep, align 4
  ret i32 %switch.load
}